target datalayout = "e-m:e-p270:32:32-p271:32:32-p272:64:64-i64:64-i128:128-f80:128-n8:16:32:64-S128"
target triple = "x86_64-pc-linux-gnu"

; Function Attrs: nounwind uwtable
define internal void @pem_free(ptr noundef %0, i32 noundef %1, i64 noundef %2, ptr noundef %3, i32 noundef %4) #0 {
  %6 = alloca ptr, align 8
  %7 = alloca i32, align 4
  %8 = alloca i64, align 8
  %9 = alloca ptr, align 8
  %10 = alloca i32, align 4
  store ptr %0, ptr %6, align 8, !tbaa !10
  store i32 %1, ptr %7, align 4, !tbaa !8
  store i64 %2, ptr %8, align 8, !tbaa !11
  store ptr %3, ptr %9, align 8, !tbaa !3
  store i32 %4, ptr %10, align 4, !tbaa !8
  %11 = load i32, ptr %7, align 4, !tbaa !8
  %12 = and i32 %11, 1
  %13 = icmp ne i32 %12, 0
  br i1 %13, label %14, label %19

14:                                               ; preds = %5
  %15 = load ptr, ptr %6, align 8, !tbaa !10
  %16 = load i64, ptr %8, align 8, !tbaa !11
  %17 = load ptr, ptr %9, align 8, !tbaa !3
  %18 = load i32, ptr %10, align 4, !tbaa !8
  call void @CRYPTO_secure_clear_free(ptr noundef %15, i64 noundef %16, ptr noundef %17, i32 noundef %18)
  br label %23

19:                                               ; preds = %5
  %20 = load ptr, ptr %6, align 8, !tbaa !10
  %21 = load ptr, ptr %9, align 8, !tbaa !3
  %22 = load i32, ptr %10, align 4, !tbaa !8
  call void @CRYPTO_free(ptr noundef %20, ptr noundef %21, i32 noundef %22)
  br label %23

23:                                               ; preds = %19, %14
  ret void
}