; Function Attrs: nounwind uwtable
define internal fastcc void @pem_free(ptr noundef %0, i32 noundef %1, i64 noundef %2, i32 noundef range(i32 254, 1028) %3) unnamed_addr #0 {
  %5 = and i32 %1, 1
  %.not = icmp eq i32 %5, 0
  br i1 %.not, label %7, label %6

6:                                                ; preds = %4
  tail call void @CRYPTO_secure_clear_free(ptr noundef %0, i64 noundef %2, ptr noundef nonnull @.str.1, i32 noundef %3) #10
  br label %8

7:                                                ; preds = %4
  tail call void @CRYPTO_free(ptr noundef %0, ptr noundef nonnull @.str.1, i32 noundef %3) #10
  br label %8

8:                                                ; preds = %7, %6
  ret void
}